target datalayout = "e-m:e-p270:32:32-p271:32:32-p272:64:64-i64:64-i128:128-f80:128-n8:16:32:64-S128"
target triple = "x86_64-pc-linux-gnu"

%"class.pxrInternal_v0_24__pxrReserved__::GfDualQuath" = type { %"class.pxrInternal_v0_24__pxrReserved__::GfQuath", %"class.pxrInternal_v0_24__pxrReserved__::GfQuath" }
%"class.pxrInternal_v0_24__pxrReserved__::GfQuath" = type { %"class.pxrInternal_v0_24__pxrReserved__::GfVec3h", %"class.pxrInternal_v0_24__pxrReserved__::pxr_half::half" }
%"class.pxrInternal_v0_24__pxrReserved__::GfVec3h" = type { [3 x %"class.pxrInternal_v0_24__pxrReserved__::pxr_half::half"] }
%"class.pxrInternal_v0_24__pxrReserved__::pxr_half::half" = type { i16 }

@.str.4 = private unnamed_addr constant [3 x i8] c", \00", align 1

; Function Attrs: mustprogress nounwind uwtable
define linkonce_odr noundef nonnull align 2 dereferenceable(8) ptr @_ZNK32pxrInternal_v0_24__pxrReserved__11GfDualQuath7GetDualEv(ptr noundef nonnull align 2 dereferenceable(16) %0) #2 comdat align 2 {
  %2 = alloca ptr, align 8
  store ptr %0, ptr %2, align 8
  %3 = load ptr, ptr %2, align 8
  %4 = getelementptr inbounds nuw %"class.pxrInternal_v0_24__pxrReserved__::GfDualQuath", ptr %3, i32 0, i32 1
  ret ptr %4
}

; Function Attrs: mustprogress nounwind uwtable
define linkonce_odr i64 @_ZN32pxrInternal_v0_24__pxrReserved__17Gf_OstreamHelperPINS_7GfQuathEEET_S2_(i64 %0) #2 comdat {
  %2 = alloca %"class.pxrInternal_v0_24__pxrReserved__::GfQuath", align 2
  %3 = alloca %"class.pxrInternal_v0_24__pxrReserved__::GfQuath", align 2
  store i64 %0, ptr %3, align 2
  call void @llvm.memcpy.p0.p0.i64(ptr align 2 %2, ptr align 2 %3, i64 8, i1 false)
  %4 = load i64, ptr %2, align 2
  ret i64 %4
}

; Function Attrs: mustprogress nounwind uwtable
define linkonce_odr noundef nonnull align 2 dereferenceable(8) ptr @_ZNK32pxrInternal_v0_24__pxrReserved__11GfDualQuath7GetRealEv(ptr noundef nonnull align 2 dereferenceable(16) %0) #2 comdat align 2 {
  %2 = alloca ptr, align 8
  store ptr %0, ptr %2, align 8
  %3 = load ptr, ptr %2, align 8
  %4 = getelementptr inbounds nuw %"class.pxrInternal_v0_24__pxrReserved__::GfDualQuath", ptr %3, i32 0, i32 0
  ret ptr %4
}

; Function Attrs: mustprogress uwtable
define noundef nonnull align 8 dereferenceable(8) ptr @_ZN32pxrInternal_v0_24__pxrReserved__lsERSoRKNS_11GfDualQuathE(ptr noundef nonnull align 8 dereferenceable(8) %0, ptr noundef nonnull align 2 dereferenceable(16) %1) #0 {
  %3 = alloca ptr, align 8
  %4 = alloca ptr, align 8
  %5 = alloca %"class.pxrInternal_v0_24__pxrReserved__::GfQuath", align 2
  %6 = alloca %"class.pxrInternal_v0_24__pxrReserved__::GfQuath", align 2
  %7 = alloca %"class.pxrInternal_v0_24__pxrReserved__::GfQuath", align 2
  %8 = alloca %"class.pxrInternal_v0_24__pxrReserved__::GfQuath", align 2
  store ptr %0, ptr %3, align 8
  store ptr %1, ptr %4, align 8
  %9 = load ptr, ptr %3, align 8
  %10 = call noundef nonnull align 8 dereferenceable(8) ptr @_ZStlsISt11char_traitsIcEERSt13basic_ostreamIcT_ES5_c(ptr noundef nonnull align 8 dereferenceable(8) %9, i8 noundef signext 40)
  %11 = load ptr, ptr %4, align 8
  %12 = call noundef nonnull align 2 dereferenceable(8) ptr @_ZNK32pxrInternal_v0_24__pxrReserved__11GfDualQuath7GetRealEv(ptr noundef nonnull align 2 dereferenceable(16) %11)
  call void @llvm.memcpy.p0.p0.i64(ptr align 2 %6, ptr align 2 %12, i64 8, i1 false)
  %13 = load i64, ptr %6, align 2
  %14 = call i64 @_ZN32pxrInternal_v0_24__pxrReserved__17Gf_OstreamHelperPINS_7GfQuathEEET_S2_(i64 %13)
  store i64 %14, ptr %5, align 2
  %15 = call noundef nonnull align 8 dereferenceable(8) ptr @_ZN32pxrInternal_v0_24__pxrReserved__lsERSoRKNS_7GfQuathE(ptr noundef nonnull align 8 dereferenceable(8) %10, ptr noundef nonnull align 2 dereferenceable(8) %5)
  %16 = call noundef nonnull align 8 dereferenceable(8) ptr @_ZStlsISt11char_traitsIcEERSt13basic_ostreamIcT_ES5_PKc(ptr noundef nonnull align 8 dereferenceable(8) %15, ptr noundef @.str.4)
  %17 = load ptr, ptr %4, align 8
  %18 = call noundef nonnull align 2 dereferenceable(8) ptr @_ZNK32pxrInternal_v0_24__pxrReserved__11GfDualQuath7GetDualEv(ptr noundef nonnull align 2 dereferenceable(16) %17)
  call void @llvm.memcpy.p0.p0.i64(ptr align 2 %8, ptr align 2 %18, i64 8, i1 false)
  %19 = load i64, ptr %8, align 2
  %20 = call i64 @_ZN32pxrInternal_v0_24__pxrReserved__17Gf_OstreamHelperPINS_7GfQuathEEET_S2_(i64 %19)
  store i64 %20, ptr %7, align 2
  %21 = call noundef nonnull align 8 dereferenceable(8) ptr @_ZN32pxrInternal_v0_24__pxrReserved__lsERSoRKNS_7GfQuathE(ptr noundef nonnull align 8 dereferenceable(8) %16, ptr noundef nonnull align 2 dereferenceable(8) %7)
  %22 = call noundef nonnull align 8 dereferenceable(8) ptr @_ZStlsISt11char_traitsIcEERSt13basic_ostreamIcT_ES5_c(ptr noundef nonnull align 8 dereferenceable(8) %21, i8 noundef signext 41)
  ret ptr %22
}